target datalayout = "e-m:e-p270:32:32-p271:32:32-p272:64:64-i64:64-i128:128-f80:128-n8:16:32:64-S128"
target triple = "x86_64-pc-linux-gnu"

%union.UElement = type { ptr }

; Function Attrs: mustprogress uwtable
define i32 @uhash_iputiAllowZero_77(ptr noundef %0, i32 noundef %1, i32 noundef %2, ptr noundef %3) #0 {
  %5 = alloca ptr, align 8
  %6 = alloca i32, align 4
  %7 = alloca i32, align 4
  %8 = alloca ptr, align 8
  %9 = alloca %union.UElement, align 8
  %10 = alloca %union.UElement, align 8
  %11 = alloca %union.UElement, align 8
  %12 = alloca %union.UElement, align 8
  %13 = alloca %union.UElement, align 8
  store ptr %0, ptr %5, align 8, !tbaa !11
  store i32 %1, ptr %6, align 4, !tbaa !7
  store i32 %2, ptr %7, align 4, !tbaa !7
  store ptr %3, ptr %8, align 8, !tbaa !3
  call void @llvm.lifetime.start.p0(i64 8, ptr %9) #9
  call void @llvm.lifetime.start.p0(i64 8, ptr %10) #9
  %14 = load i32, ptr %6, align 4, !tbaa !7
  store i32 %14, ptr %9, align 8, !tbaa !27
  %15 = load i32, ptr %7, align 4, !tbaa !7
  store i32 %15, ptr %10, align 8, !tbaa !27
  call void @llvm.lifetime.start.p0(i64 8, ptr %11) #9
  %16 = load ptr, ptr %5, align 8, !tbaa !11
  call void @llvm.memcpy.p0.p0.i64(ptr align 8 %12, ptr align 8 %9, i64 8, i1 false), !tbaa.struct !44
  call void @llvm.memcpy.p0.p0.i64(ptr align 8 %13, ptr align 8 %10, i64 8, i1 false), !tbaa.struct !44
  %17 = load ptr, ptr %8, align 8, !tbaa !3
  %18 = getelementptr inbounds nuw %union.UElement, ptr %12, i32 0, i32 0
  %19 = load ptr, ptr %18, align 8
  %20 = getelementptr inbounds nuw %union.UElement, ptr %13, i32 0, i32 0
  %21 = load ptr, ptr %20, align 8
  %22 = call ptr @_ZL10_uhash_putP10UHashtable8UElementS1_aP10UErrorCode(ptr noundef %16, ptr %19, ptr %21, i8 noundef signext 4, ptr noundef %17)
  %23 = getelementptr inbounds nuw %union.UElement, ptr %11, i32 0, i32 0
  store ptr %22, ptr %23, align 8
  %24 = load i32, ptr %11, align 8, !tbaa !27
  call void @llvm.lifetime.end.p0(i64 8, ptr %11) #9
  call void @llvm.lifetime.end.p0(i64 8, ptr %10) #9
  call void @llvm.lifetime.end.p0(i64 8, ptr %9) #9
  ret i32 %24
}