; Function Attrs: mustprogress uwtable
define i32 @uhash_iputiAllowZero_77(ptr noundef captures(none) %0, i32 noundef %1, i32 noundef %2, ptr noundef captures(none) %3) local_unnamed_addr #0 {
  %.sroa.04.0.insert.ext = zext i32 %1 to i64
  %5 = inttoptr i64 %.sroa.04.0.insert.ext to ptr
  %.sroa.03.0.insert.ext = zext i32 %2 to i64
  %6 = inttoptr i64 %.sroa.03.0.insert.ext to ptr
  %7 = tail call fastcc ptr @_ZL10_uhash_putP10UHashtable8UElementS1_aP10UErrorCode(ptr noundef %0, ptr %5, ptr %6, i8 noundef signext 4, ptr noundef %3)
  %8 = ptrtoint ptr %7 to i64
  %.sroa.02.0.extract.trunc = trunc i64 %8 to i32
  ret i32 %.sroa.02.0.extract.trunc
}